target datalayout = "e-m:e-p270:32:32-p271:32:32-p272:64:64-i64:64-i128:128-f80:128-n8:16:32:64-S128"
target triple = "x86_64-pc-linux-gnu"

%class.StackOverflow = type { i32, ptr, ptr, ptr, ptr, ptr, ptr }

@_ZN13StackOverflow20_stack_red_zone_sizeE = hidden global i64 0, align 8
@_ZN13StackOverflow23_stack_yellow_zone_sizeE = hidden global i64 0, align 8
@_ZN13StackOverflow25_stack_reserved_zone_sizeE = hidden global i64 0, align 8
@.str.6 = private unnamed_addr constant [44 x i8] c"src/hotspot/share/runtime/stackOverflow.cpp\00", align 1
@g_assert_poison = external global ptr, align 8
@.str.21 = private unnamed_addr constant [54 x i8] c"guarantee(cur_sp > stack_reserved_zone_base()) failed\00", align 1
@.str.22 = private unnamed_addr constant [56 x i8] c"not enough space to reguard - increase StackShadowPages\00", align 1

; Function Attrs: mustprogress nounwind uwtable
define linkonce_odr hidden noundef i64 @_ZN13StackOverflow24stack_reserved_zone_sizeEv() #1 comdat align 2 {
  %1 = load i64, ptr @_ZN13StackOverflow25_stack_reserved_zone_sizeE, align 8
  ret i64 %1
}

; Function Attrs: mustprogress nounwind uwtable
define linkonce_odr hidden noundef i64 @_ZN13StackOverflow22stack_yellow_zone_sizeEv() #1 comdat align 2 {
  %1 = load i64, ptr @_ZN13StackOverflow23_stack_yellow_zone_sizeE, align 8
  ret i64 %1
}

; Function Attrs: mustprogress nounwind uwtable
define linkonce_odr hidden noundef i64 @_ZN13StackOverflow19stack_red_zone_sizeEv() #1 comdat align 2 {
  %1 = load i64, ptr @_ZN13StackOverflow20_stack_red_zone_sizeE, align 8
  ret i64 %1
}

; Function Attrs: mustprogress nounwind uwtable
define linkonce_odr hidden noundef ptr @_ZNK13StackOverflow9stack_endEv(ptr noundef nonnull align 8 dereferenceable(56) %0) #1 comdat align 2 {
  %2 = alloca ptr, align 8
  store ptr %0, ptr %2, align 8
  %3 = load ptr, ptr %2, align 8
  %4 = getelementptr inbounds %class.StackOverflow, ptr %3, i32 0, i32 6
  %5 = load ptr, ptr %4, align 8
  ret ptr %5
}

; Function Attrs: mustprogress nounwind uwtable
define linkonce_odr hidden void @_ZN13StackOverflow29set_reserved_stack_activationEPh(ptr noundef nonnull align 8 dereferenceable(56) %0, ptr noundef %1) #1 comdat align 2 {
  %3 = alloca ptr, align 8
  %4 = alloca ptr, align 8
  store ptr %0, ptr %3, align 8
  store ptr %1, ptr %4, align 8
  %5 = load ptr, ptr %3, align 8
  %6 = load ptr, ptr %4, align 8
  %7 = getelementptr inbounds %class.StackOverflow, ptr %5, i32 0, i32 2
  store ptr %6, ptr %7, align 8
  ret void
}

; Function Attrs: mustprogress nounwind uwtable
define linkonce_odr hidden noundef ptr @_ZNK13StackOverflow10stack_baseEv(ptr noundef nonnull align 8 dereferenceable(56) %0) #1 comdat align 2 {
  %2 = alloca ptr, align 8
  store ptr %0, ptr %2, align 8
  %3 = load ptr, ptr %2, align 8
  %4 = getelementptr inbounds %class.StackOverflow, ptr %3, i32 0, i32 5
  %5 = load ptr, ptr %4, align 8
  ret ptr %5
}

; Function Attrs: mustprogress nounwind uwtable
define linkonce_odr hidden noundef ptr @_ZNK13StackOverflow25reserved_stack_activationEv(ptr noundef nonnull align 8 dereferenceable(56) %0) #1 comdat align 2 {
  %2 = alloca ptr, align 8
  store ptr %0, ptr %2, align 8
  %3 = load ptr, ptr %2, align 8
  %4 = getelementptr inbounds %class.StackOverflow, ptr %3, i32 0, i32 2
  %5 = load ptr, ptr %4, align 8
  ret ptr %5
}

; Function Attrs: mustprogress nounwind uwtable
define linkonce_odr hidden noundef ptr @_ZNK13StackOverflow24stack_reserved_zone_baseEv(ptr noundef nonnull align 8 dereferenceable(56) %0) #1 comdat align 2 {
  %2 = alloca ptr, align 8
  store ptr %0, ptr %2, align 8
  %3 = load ptr, ptr %2, align 8
  %4 = call noundef ptr @_ZNK13StackOverflow9stack_endEv(ptr noundef nonnull align 8 dereferenceable(56) %3)
  %5 = call noundef i64 @_ZN13StackOverflow19stack_red_zone_sizeEv()
  %6 = call noundef i64 @_ZN13StackOverflow22stack_yellow_zone_sizeEv()
  %7 = add i64 %5, %6
  %8 = call noundef i64 @_ZN13StackOverflow24stack_reserved_zone_sizeEv()
  %9 = add i64 %7, %8
  %10 = getelementptr inbounds i8, ptr %4, i64 %9
  ret ptr %10
}

; Function Attrs: mustprogress nounwind uwtable
define hidden noundef zeroext i1 @_ZN13StackOverflow13reguard_stackEPh(ptr noundef nonnull align 8 dereferenceable(56) %0, ptr noundef %1) #1 align 2 {
  %3 = alloca i1, align 1
  %4 = alloca ptr, align 8
  %5 = alloca ptr, align 8
  store ptr %0, ptr %4, align 8
  store ptr %1, ptr %5, align 8
  %6 = load ptr, ptr %4, align 8
  %7 = getelementptr inbounds %class.StackOverflow, ptr %6, i32 0, i32 0
  %8 = load i32, ptr %7, align 8
  %9 = icmp ne i32 %8, 2
  br i1 %9, label %10, label %15

10:                                               ; preds = %2
  %11 = getelementptr inbounds %class.StackOverflow, ptr %6, i32 0, i32 0
  %12 = load i32, ptr %11, align 8
  %13 = icmp ne i32 %12, 1
  br i1 %13, label %14, label %15

14:                                               ; preds = %10
  store i1 true, ptr %3, align 1
  br label %42

15:                                               ; preds = %10, %2
  br label %16

16:                                               ; preds = %15
  %17 = load ptr, ptr %5, align 8
  %18 = call noundef ptr @_ZNK13StackOverflow24stack_reserved_zone_baseEv(ptr noundef nonnull align 8 dereferenceable(56) %6)
  %19 = icmp ugt ptr %17, %18
  br i1 %19, label %22, label %20

20:                                               ; preds = %16
  %21 = load ptr, ptr @g_assert_poison, align 8
  store i8 88, ptr %21, align 1
  call void (ptr, i32, ptr, ptr, ...) @_Z15report_vm_errorPKciS0_S0_z(ptr noundef @.str.6, i32 noundef 239, ptr noundef @.str.21, ptr noundef @.str.22) #5
  unreachable

22:                                               ; preds = %16
  br label %23

23:                                               ; preds = %22
  %24 = getelementptr inbounds %class.StackOverflow, ptr %6, i32 0, i32 0
  %25 = load i32, ptr %24, align 8
  %26 = icmp eq i32 %25, 2
  br i1 %26, label %27, label %34

27:                                               ; preds = %23
  call void @_ZN13StackOverflow33enable_stack_yellow_reserved_zoneEv(ptr noundef nonnull align 8 dereferenceable(56) %6)
  %28 = call noundef ptr @_ZNK13StackOverflow25reserved_stack_activationEv(ptr noundef nonnull align 8 dereferenceable(56) %6)
  %29 = call noundef ptr @_ZNK13StackOverflow10stack_baseEv(ptr noundef nonnull align 8 dereferenceable(56) %6)
  %30 = icmp ne ptr %28, %29
  br i1 %30, label %31, label %33

31:                                               ; preds = %27
  %32 = call noundef ptr @_ZNK13StackOverflow10stack_baseEv(ptr noundef nonnull align 8 dereferenceable(56) %6)
  call void @_ZN13StackOverflow29set_reserved_stack_activationEPh(ptr noundef nonnull align 8 dereferenceable(56) %6, ptr noundef %32)
  br label %33

33:                                               ; preds = %31, %27
  br label %41

34:                                               ; preds = %23
  %35 = getelementptr inbounds %class.StackOverflow, ptr %6, i32 0, i32 0
  %36 = load i32, ptr %35, align 8
  %37 = icmp eq i32 %36, 1
  br i1 %37, label %38, label %40

38:                                               ; preds = %34
  %39 = call noundef ptr @_ZNK13StackOverflow10stack_baseEv(ptr noundef nonnull align 8 dereferenceable(56) %6)
  call void @_ZN13StackOverflow29set_reserved_stack_activationEPh(ptr noundef nonnull align 8 dereferenceable(56) %6, ptr noundef %39)
  call void @_ZN13StackOverflow26enable_stack_reserved_zoneEb(ptr noundef nonnull align 8 dereferenceable(56) %6, i1 noundef zeroext false)
  br label %40

40:                                               ; preds = %38, %34
  br label %41

41:                                               ; preds = %40, %33
  store i1 true, ptr %3, align 1
  br label %42

42:                                               ; preds = %41, %14
  %43 = load i1, ptr %3, align 1
  ret i1 %43
}

; Function Attrs: mustprogress nounwind uwtable
define hidden noundef zeroext i1 @_ZN13StackOverflow13reguard_stackEv(ptr noundef nonnull align 8 dereferenceable(56) %0) #1 align 2 {
  %2 = alloca ptr, align 8
  store ptr %0, ptr %2, align 8
  %3 = load ptr, ptr %2, align 8
  %4 = call noundef ptr @_ZN2os21current_stack_pointerEv()
  %5 = call noundef zeroext i1 @_ZN13StackOverflow13reguard_stackEPh(ptr noundef nonnull align 8 dereferenceable(56) %3, ptr noundef %4)
  ret i1 %5
}

; Function Attrs: mustprogress nounwind uwtable
define hidden noundef zeroext i1 @_ZNK13StackOverflow20stack_guards_enabledEv(ptr noundef nonnull align 8 dereferenceable(56) %0) #1 align 2 {
  %2 = alloca ptr, align 8
  store ptr %0, ptr %2, align 8
  %3 = load ptr, ptr %2, align 8
  %4 = getelementptr inbounds %class.StackOverflow, ptr %3, i32 0, i32 0
  %5 = load i32, ptr %4, align 8
  %6 = icmp eq i32 %5, 3
  ret i1 %6
}

; Function Attrs: mustprogress nounwind uwtable
define hidden noundef zeroext i1 @_ZN13StackOverflow23reguard_stack_if_neededEv(ptr noundef nonnull align 8 dereferenceable(56) %0) #1 align 2 {
  %2 = alloca ptr, align 8
  store ptr %0, ptr %2, align 8
  %3 = load ptr, ptr %2, align 8
  %4 = call noundef zeroext i1 @_ZNK13StackOverflow20stack_guards_enabledEv(ptr noundef nonnull align 8 dereferenceable(56) %3)
  br i1 %4, label %7, label %5

5:                                                ; preds = %1
  %6 = call noundef zeroext i1 @_ZN13StackOverflow13reguard_stackEv(ptr noundef nonnull align 8 dereferenceable(56) %3)
  br label %8

7:                                                ; preds = %1
  br label %8

8:                                                ; preds = %7, %5
  %9 = phi i1 [ %6, %5 ], [ true, %7 ]
  ret i1 %9
}