; Function Attrs: mustprogress nounwind uwtable
define hidden noundef zeroext i1 @_ZN13StackOverflow23reguard_stack_if_neededEv(ptr nocapture noundef nonnull align 8 dereferenceable(56) %0) local_unnamed_addr #2 align 2 {
  %2 = load i32, ptr %0, align 8
  %3 = icmp eq i32 %2, 3
  br i1 %3, label %_ZN13StackOverflow13reguard_stackEv.exit, label %4

4:                                                ; preds = %1
  %5 = tail call noundef ptr @_ZN2os21current_stack_pointerEv() #7
  %6 = load i32, ptr %0, align 8
  %.off.i.i = add i32 %6, -1
  %switch.i.i = icmp ult i32 %.off.i.i, 2
  br i1 %switch.i.i, label %7, label %_ZN13StackOverflow13reguard_stackEv.exit

7:                                                ; preds = %4
  %8 = getelementptr inbounds i8, ptr %0, i64 48
  %9 = load ptr, ptr %8, align 8
  %10 = load i64, ptr @_ZN13StackOverflow20_stack_red_zone_sizeE, align 8
  %11 = load i64, ptr @_ZN13StackOverflow23_stack_yellow_zone_sizeE, align 8
  %12 = load i64, ptr @_ZN13StackOverflow25_stack_reserved_zone_sizeE, align 8
  %13 = getelementptr i8, ptr %9, i64 %10
  %14 = getelementptr i8, ptr %13, i64 %11
  %15 = getelementptr i8, ptr %14, i64 %12
  %16 = icmp ult ptr %15, %5
  br i1 %16, label %19, label %17

17:                                               ; preds = %7
  %18 = load ptr, ptr @g_assert_poison, align 8
  store i8 88, ptr %18, align 1
  tail call void (ptr, i32, ptr, ptr, ...) @_Z15report_vm_errorPKciS0_S0_z(ptr noundef nonnull @.str.6, i32 noundef 239, ptr noundef nonnull @.str.21, ptr noundef nonnull @.str.22) #8
  unreachable

19:                                               ; preds = %7
  %switch7.i.i = icmp eq i32 %6, 2
  br i1 %switch7.i.i, label %20, label %26

20:                                               ; preds = %19
  tail call void @_ZN13StackOverflow33enable_stack_yellow_reserved_zoneEv(ptr noundef nonnull align 8 dereferenceable(56) %0)
  %21 = getelementptr inbounds i8, ptr %0, i64 16
  %22 = load ptr, ptr %21, align 8
  %23 = getelementptr inbounds i8, ptr %0, i64 40
  %24 = load ptr, ptr %23, align 8
  %.not5.i.i = icmp eq ptr %22, %24
  br i1 %.not5.i.i, label %_ZN13StackOverflow13reguard_stackEv.exit, label %25

25:                                               ; preds = %20
  store ptr %24, ptr %21, align 8
  br label %_ZN13StackOverflow13reguard_stackEv.exit

26:                                               ; preds = %19
  %27 = getelementptr inbounds i8, ptr %0, i64 40
  %28 = load ptr, ptr %27, align 8
  %29 = getelementptr inbounds i8, ptr %0, i64 16
  store ptr %28, ptr %29, align 8
  tail call void @_ZN13StackOverflow26enable_stack_reserved_zoneEb(ptr noundef nonnull align 8 dereferenceable(56) %0, i1 noundef zeroext false)
  br label %_ZN13StackOverflow13reguard_stackEv.exit

_ZN13StackOverflow13reguard_stackEv.exit:         ; preds = %26, %25, %20, %4, %1
  ret i1 true
}